; Function Attrs: mustprogress uwtable
define noundef zeroext i1 @_ZNK8QuantLib13DeltaVolQuote7isValidEv(ptr noundef nonnull align 8 dereferenceable(108) %this) unnamed_addr #6 align 2 {
entry:
  %vol_ = getelementptr inbounds nuw i8, ptr %this, i64 72
  %0 = load ptr, ptr %vol_, align 8, !tbaa !45
  %cmp.not.i.i = icmp eq ptr %0, null
  br i1 %cmp.not.i.i, label %cond.false.i.i, label %_ZNK8QuantLib6HandleINS_5QuoteEE5emptyEv.exit, !prof !69

cond.false.i.i:                                   ; preds = %entry
  tail call void @_ZN5boost16assertion_failedEPKcS1_S1_l(ptr noundef nonnull @.str, ptr noundef nonnull @__PRETTY_FUNCTION__._ZNK5boost10shared_ptrIN8QuantLib6HandleINS1_5QuoteEE4LinkEEptEv, ptr noundef nonnull @.str.1, i64 noundef 784)
  %.pre.i.i = load ptr, ptr %vol_, align 8, !tbaa !45
  br label %_ZNK8QuantLib6HandleINS_5QuoteEE5emptyEv.exit

_ZNK8QuantLib6HandleINS_5QuoteEE5emptyEv.exit:    ; preds = %entry, %cond.false.i.i
  %1 = phi ptr [ %0, %entry ], [ %.pre.i.i, %cond.false.i.i ]
  %h_.i.i = getelementptr inbounds nuw i8, ptr %1, i64 112
  %2 = load ptr, ptr %h_.i.i, align 8, !tbaa !67
  %cmp.i.i.i = icmp eq ptr %2, null
  br i1 %cmp.i.i.i, label %land.end, label %land.rhs

land.rhs:                                         ; preds = %_ZNK8QuantLib6HandleINS_5QuoteEE5emptyEv.exit
  %call3 = tail call noundef nonnull align 8 dereferenceable(16) ptr @_ZNK8QuantLib6HandleINS_5QuoteEEptEv(ptr noundef nonnull align 8 dereferenceable(16) %vol_)
  %3 = load ptr, ptr %call3, align 8, !tbaa !67
  %cmp.not.i = icmp eq ptr %3, null
  br i1 %cmp.not.i, label %cond.false.i, label %_ZNK5boost10shared_ptrIN8QuantLib5QuoteEEptEv.exit, !prof !69

cond.false.i:                                     ; preds = %land.rhs
  tail call void @_ZN5boost16assertion_failedEPKcS1_S1_l(ptr noundef nonnull @.str, ptr noundef nonnull @__PRETTY_FUNCTION__._ZNK5boost10shared_ptrIN8QuantLib5QuoteEEptEv, ptr noundef nonnull @.str.1, i64 noundef 784)
  %.pre.i = load ptr, ptr %call3, align 8, !tbaa !67
  br label %_ZNK5boost10shared_ptrIN8QuantLib5QuoteEEptEv.exit

_ZNK5boost10shared_ptrIN8QuantLib5QuoteEEptEv.exit: ; preds = %land.rhs, %cond.false.i
  %4 = phi ptr [ %3, %land.rhs ], [ %.pre.i, %cond.false.i ]
  %vtable = load ptr, ptr %4, align 8, !tbaa !28
  %vfn = getelementptr inbounds i8, ptr %vtable, i64 24
  %5 = load ptr, ptr %vfn, align 8
  %call5 = tail call noundef zeroext i1 %5(ptr noundef nonnull align 8 dereferenceable(8) %4)
  br label %land.end

land.end:                                         ; preds = %_ZNK5boost10shared_ptrIN8QuantLib5QuoteEEptEv.exit, %_ZNK8QuantLib6HandleINS_5QuoteEE5emptyEv.exit
  %6 = phi i1 [ false, %_ZNK8QuantLib6HandleINS_5QuoteEE5emptyEv.exit ], [ %call5, %_ZNK5boost10shared_ptrIN8QuantLib5QuoteEEptEv.exit ]
  ret i1 %6
}